; Function Attrs: mustprogress uwtable
define dso_local void @_ZNK4pbrt16ProgressReporter8ToStringB5cxx11Ev(ptr dead_on_unwind noalias writable sret(%"class.std::__cxx11::basic_string") align 8 %0, ptr noundef nonnull align 8 dereferenceable(88) %1) local_unnamed_addr #0 align 2 personality ptr @__gxx_personality_v0 {
  %3 = getelementptr inbounds nuw i8, ptr %1, i64 8
  %4 = getelementptr inbounds nuw i8, ptr %1, i64 48
  %5 = getelementptr inbounds nuw i8, ptr %1, i64 56
  %6 = getelementptr inbounds nuw i8, ptr %1, i64 64
  %7 = getelementptr inbounds nuw i8, ptr %0, i64 16
  store ptr %7, ptr %0, align 8, !tbaa !8, !alias.scope !64
  %8 = getelementptr inbounds nuw i8, ptr %0, i64 8
  store i64 0, ptr %8, align 8, !tbaa !15, !alias.scope !64
  store i8 0, ptr %7, align 8, !tbaa !17, !alias.scope !64
  invoke void @_ZN4pbrt6detail21stringPrintfRecursiveIRKlJRKNSt7__cxx1112basic_stringIcSt11char_traitsIcESaIcEEERKNS_5TimerERKSt6atomicIlERKSF_IbEEEEvPS9_PKcOT_DpOT0_(ptr noundef nonnull align 8 %0, ptr noundef nonnull @.str.9, ptr noundef nonnull align 8 dereferenceable(8) %1, ptr noundef nonnull align 8 dereferenceable(32) %3, ptr noundef nonnull align 8 dereferenceable(8) %4, ptr noundef nonnull align 8 dereferenceable(8) %5, ptr noundef nonnull align 1 dereferenceable(1) %6)
          to label %_ZN4pbrt12StringPrintfIJRKlRKNSt7__cxx1112basic_stringIcSt11char_traitsIcESaIcEEERKNS_5TimerERKSt6atomicIlERKSE_IbEEEES8_PKcDpOT_.exit unwind label %9

9:                                                ; preds = %2
  %10 = landingpad { ptr, i32 }
          cleanup
  %11 = load ptr, ptr %0, align 8, !tbaa !18, !alias.scope !64
  %12 = icmp eq ptr %11, %7
  br i1 %12, label %_ZNKSt7__cxx1112basic_stringIcSt11char_traitsIcESaIcEE11_M_is_localEv.exit.thread.i.i.i, label %_ZNKSt7__cxx1112basic_stringIcSt11char_traitsIcESaIcEE11_M_is_localEv.exit.i.i.i

_ZNKSt7__cxx1112basic_stringIcSt11char_traitsIcESaIcEE11_M_is_localEv.exit.thread.i.i.i: ; preds = %9
  %13 = load i64, ptr %8, align 8, !tbaa !15, !alias.scope !64
  %14 = icmp ult i64 %13, 16
  tail call void @llvm.assume(i1 %14)
  br label %_ZNSt7__cxx1112basic_stringIcSt11char_traitsIcESaIcEED2Ev.exit.i

_ZNKSt7__cxx1112basic_stringIcSt11char_traitsIcESaIcEE11_M_is_localEv.exit.i.i.i: ; preds = %9
  %15 = load i64, ptr %7, align 8, !tbaa !17, !alias.scope !64
  %16 = add i64 %15, 1
  tail call void @_ZdlPvm(ptr noundef %11, i64 noundef %16) #24
  br label %_ZNSt7__cxx1112basic_stringIcSt11char_traitsIcESaIcEED2Ev.exit.i

_ZNSt7__cxx1112basic_stringIcSt11char_traitsIcESaIcEED2Ev.exit.i: ; preds = %_ZNKSt7__cxx1112basic_stringIcSt11char_traitsIcESaIcEE11_M_is_localEv.exit.i.i.i, %_ZNKSt7__cxx1112basic_stringIcSt11char_traitsIcESaIcEE11_M_is_localEv.exit.thread.i.i.i
  resume { ptr, i32 } %10

_ZN4pbrt12StringPrintfIJRKlRKNSt7__cxx1112basic_stringIcSt11char_traitsIcESaIcEEERKNS_5TimerERKSt6atomicIlERKSE_IbEEEES8_PKcDpOT_.exit: ; preds = %2
  ret void
}